target datalayout = "e-m:e-p270:32:32-p271:32:32-p272:64:64-i64:64-i128:128-f80:128-n8:16:32:64-S128"
target triple = "x86_64-pc-linux-gnu"

%struct._packet_info = type { ptr, ptr, i32, i32, %struct.nstime_t, %struct.nstime_t, %struct.nstime_t, i8, ptr, ptr, ptr, ptr, %struct._address, %struct._address, %struct._address, %struct._address, %struct._address, %struct._address, i32, ptr, i8, [3 x i8], %struct.anon, i32, i32, i32, i32, ptr, i8, ptr, ptr, i16, i16, i32, i32, i16, i32, i32, ptr, ptr, ptr, i8, i8, i16, i16, i16, i32, i16, i16, ptr, ptr, ptr, ptr, ptr, i32, i32 }
%struct.nstime_t = type { i64, i32 }
%struct._address = type { i32, i32, ptr, ptr }
%struct.anon = type { i8, [3 x i8] }

@hf_marker = internal global i32 0, align 4
@hf_marker_segment = internal global i32 0, align 4
@hf_len = internal global i32 0, align 4
@hf_identifier = internal global i32 0, align 4
@hf_version = internal global i32 0, align 4
@hf_version_major = internal global i32 0, align 4
@hf_version_minor = internal global i32 0, align 4
@hf_units = internal global i32 0, align 4
@hf_xdensity = internal global i32 0, align 4
@hf_ydensity = internal global i32 0, align 4
@hf_xthumbnail = internal global i32 0, align 4
@hf_ythumbnail = internal global i32 0, align 4
@hf_rgb = internal global i32 0, align 4
@hf_extension_code = internal global i32 0, align 4
@hf_remain_seg_data = internal global i32 0, align 4
@ett_marker_segment = internal global i32 0, align 4
@ett_details = internal global i32 0, align 4
@.str.395 = private unnamed_addr constant [5 x i8] c"JFIF\00", align 1
@.str.399 = private unnamed_addr constant [14 x i8] c": %s (0x%04X)\00", align 1
@.str.400 = private unnamed_addr constant [15 x i8] c"Version: %u.%u\00", align 1
@.str.401 = private unnamed_addr constant [5 x i8] c"JFXX\00", align 1
@.str.402 = private unnamed_addr constant [22 x i8] c" (unknown identifier)\00", align 1
@.str.403 = private unnamed_addr constant [9 x i8] c"%u bytes\00", align 1

; Function Attrs: null_pointer_is_valid sspstrong uwtable
define internal i32 @process_app0_segment(ptr noundef %0, ptr noundef %1, ptr noundef %2, i32 noundef %3, i16 noundef zeroext %4, ptr noundef %5) #0 {
  %7 = alloca i32, align 4
  %8 = alloca ptr, align 8
  %9 = alloca ptr, align 8
  %10 = alloca ptr, align 8
  %11 = alloca i32, align 4
  %12 = alloca i16, align 2
  %13 = alloca ptr, align 8
  %14 = alloca ptr, align 8
  %15 = alloca ptr, align 8
  %16 = alloca ptr, align 8
  %17 = alloca i32, align 4
  %18 = alloca ptr, align 8
  %19 = alloca i32, align 4
  %20 = alloca i16, align 2
  %21 = alloca i16, align 2
  %22 = alloca i32, align 4
  store ptr %0, ptr %8, align 8
  store ptr %1, ptr %9, align 8
  store ptr %2, ptr %10, align 8
  store i32 %3, ptr %11, align 4
  store i16 %4, ptr %12, align 2
  store ptr %5, ptr %13, align 8
  call void @llvm.lifetime.start.p0(i64 8, ptr %14) #4
  call void @llvm.lifetime.start.p0(i64 8, ptr %15) #4
  call void @llvm.lifetime.start.p0(i64 8, ptr %16) #4
  store ptr null, ptr %16, align 8
  call void @llvm.lifetime.start.p0(i64 4, ptr %17) #4
  call void @llvm.lifetime.start.p0(i64 8, ptr %18) #4
  call void @llvm.lifetime.start.p0(i64 4, ptr %19) #4
  call void @llvm.lifetime.start.p0(i64 2, ptr %20) #4
  call void @llvm.lifetime.start.p0(i64 2, ptr %21) #4
  %23 = load ptr, ptr %8, align 8
  %24 = icmp ne ptr %23, null
  br i1 %24, label %26, label %25

25:                                               ; preds = %6
  store i32 0, ptr %7, align 4
  store i32 1, ptr %22, align 4
  br label %159

26:                                               ; preds = %6
  %27 = load ptr, ptr %8, align 8
  %28 = load i32, ptr @hf_marker_segment, align 4
  %29 = load ptr, ptr %9, align 8
  %30 = call ptr @proto_tree_add_item(ptr noundef %27, i32 noundef %28, ptr noundef %29, i32 noundef 0, i32 noundef -1, i32 noundef 0)
  store ptr %30, ptr %14, align 8
  %31 = load ptr, ptr %14, align 8
  %32 = load i32, ptr @ett_marker_segment, align 4
  %33 = call ptr @proto_item_add_subtree(ptr noundef %31, i32 noundef %32)
  store ptr %33, ptr %15, align 8
  %34 = load ptr, ptr %14, align 8
  %35 = load ptr, ptr %13, align 8
  %36 = load i16, ptr %12, align 2
  %37 = zext i16 %36 to i32
  call void (ptr, ptr, ...) @proto_item_append_text(ptr noundef %34, ptr noundef @.str.399, ptr noundef %35, i32 noundef %37)
  %38 = load ptr, ptr %15, align 8
  %39 = load i32, ptr @hf_marker, align 4
  %40 = load ptr, ptr %9, align 8
  %41 = call ptr @proto_tree_add_item(ptr noundef %38, i32 noundef %39, ptr noundef %40, i32 noundef 0, i32 noundef 2, i32 noundef 0)
  %42 = load ptr, ptr %15, align 8
  %43 = load i32, ptr @hf_len, align 4
  %44 = load ptr, ptr %9, align 8
  %45 = call ptr @proto_tree_add_item(ptr noundef %42, i32 noundef %43, ptr noundef %44, i32 noundef 2, i32 noundef 2, i32 noundef 0)
  %46 = load ptr, ptr %10, align 8
  %47 = getelementptr inbounds nuw %struct._packet_info, ptr %46, i32 0, i32 51
  %48 = load ptr, ptr %47, align 8
  %49 = load ptr, ptr %9, align 8
  %50 = call ptr @tvb_get_stringz_enc(ptr noundef %48, ptr noundef %49, i32 noundef 4, ptr noundef %19, i32 noundef 0)
  store ptr %50, ptr %18, align 8
  %51 = load ptr, ptr %15, align 8
  %52 = load i32, ptr @hf_identifier, align 4
  %53 = load ptr, ptr %9, align 8
  %54 = load i32, ptr %19, align 4
  %55 = call ptr @proto_tree_add_item(ptr noundef %51, i32 noundef %52, ptr noundef %53, i32 noundef 4, i32 noundef %54, i32 noundef 0)
  store ptr %55, ptr %14, align 8
  %56 = load ptr, ptr %18, align 8
  %57 = call i32 @strcmp(ptr noundef %56, ptr noundef @.str.395) #5
  %58 = icmp eq i32 %57, 0
  br i1 %58, label %59, label %134

59:                                               ; preds = %26
  %60 = load ptr, ptr %15, align 8
  %61 = load i32, ptr @hf_version, align 4
  %62 = load ptr, ptr %9, align 8
  %63 = load ptr, ptr %9, align 8
  %64 = call zeroext i8 @tvb_get_uint8(ptr noundef %63, i32 noundef 9)
  %65 = zext i8 %64 to i32
  %66 = load ptr, ptr %9, align 8
  %67 = call zeroext i8 @tvb_get_uint8(ptr noundef %66, i32 noundef 10)
  %68 = zext i8 %67 to i32
  %69 = call ptr (ptr, i32, ptr, i32, i32, ptr, ...) @proto_tree_add_none_format(ptr noundef %60, i32 noundef %61, ptr noundef %62, i32 noundef 9, i32 noundef 2, ptr noundef @.str.400, i32 noundef %65, i32 noundef %68)
  store ptr %69, ptr %14, align 8
  %70 = load ptr, ptr %14, align 8
  %71 = load i32, ptr @ett_details, align 4
  %72 = call ptr @proto_item_add_subtree(ptr noundef %70, i32 noundef %71)
  store ptr %72, ptr %16, align 8
  %73 = load ptr, ptr %16, align 8
  %74 = load i32, ptr @hf_version_major, align 4
  %75 = load ptr, ptr %9, align 8
  %76 = call ptr @proto_tree_add_item(ptr noundef %73, i32 noundef %74, ptr noundef %75, i32 noundef 9, i32 noundef 1, i32 noundef 0)
  %77 = load ptr, ptr %16, align 8
  %78 = load i32, ptr @hf_version_minor, align 4
  %79 = load ptr, ptr %9, align 8
  %80 = call ptr @proto_tree_add_item(ptr noundef %77, i32 noundef %78, ptr noundef %79, i32 noundef 10, i32 noundef 1, i32 noundef 0)
  %81 = load ptr, ptr %15, align 8
  %82 = load i32, ptr @hf_units, align 4
  %83 = load ptr, ptr %9, align 8
  %84 = call ptr @proto_tree_add_item(ptr noundef %81, i32 noundef %82, ptr noundef %83, i32 noundef 11, i32 noundef 1, i32 noundef 0)
  %85 = load ptr, ptr %15, align 8
  %86 = load i32, ptr @hf_xdensity, align 4
  %87 = load ptr, ptr %9, align 8
  %88 = call ptr @proto_tree_add_item(ptr noundef %85, i32 noundef %86, ptr noundef %87, i32 noundef 12, i32 noundef 2, i32 noundef 0)
  %89 = load ptr, ptr %15, align 8
  %90 = load i32, ptr @hf_ydensity, align 4
  %91 = load ptr, ptr %9, align 8
  %92 = call ptr @proto_tree_add_item(ptr noundef %89, i32 noundef %90, ptr noundef %91, i32 noundef 14, i32 noundef 2, i32 noundef 0)
  %93 = load ptr, ptr %15, align 8
  %94 = load i32, ptr @hf_xthumbnail, align 4
  %95 = load ptr, ptr %9, align 8
  %96 = call ptr @proto_tree_add_item(ptr noundef %93, i32 noundef %94, ptr noundef %95, i32 noundef 16, i32 noundef 1, i32 noundef 0)
  %97 = load ptr, ptr %15, align 8
  %98 = load i32, ptr @hf_ythumbnail, align 4
  %99 = load ptr, ptr %9, align 8
  %100 = call ptr @proto_tree_add_item(ptr noundef %97, i32 noundef %98, ptr noundef %99, i32 noundef 17, i32 noundef 1, i32 noundef 0)
  %101 = load ptr, ptr %9, align 8
  %102 = call zeroext i8 @tvb_get_uint8(ptr noundef %101, i32 noundef 16)
  %103 = zext i8 %102 to i16
  store i16 %103, ptr %20, align 2
  %104 = load ptr, ptr %9, align 8
  %105 = call zeroext i8 @tvb_get_uint8(ptr noundef %104, i32 noundef 17)
  %106 = zext i8 %105 to i16
  store i16 %106, ptr %21, align 2
  %107 = load i16, ptr %20, align 2
  %108 = zext i16 %107 to i32
  %109 = icmp ne i32 %108, 0
  br i1 %109, label %114, label %110

110:                                              ; preds = %59
  %111 = load i16, ptr %21, align 2
  %112 = zext i16 %111 to i32
  %113 = icmp ne i32 %112, 0
  br i1 %113, label %114, label %132

114:                                              ; preds = %110, %59
  %115 = load ptr, ptr %15, align 8
  %116 = load i32, ptr @hf_rgb, align 4
  %117 = load ptr, ptr %9, align 8
  %118 = load i16, ptr %20, align 2
  %119 = zext i16 %118 to i32
  %120 = load i16, ptr %21, align 2
  %121 = zext i16 %120 to i32
  %122 = mul i32 %119, %121
  %123 = mul i32 3, %122
  %124 = call ptr @proto_tree_add_item(ptr noundef %115, i32 noundef %116, ptr noundef %117, i32 noundef 18, i32 noundef %123, i32 noundef 0)
  %125 = load i16, ptr %20, align 2
  %126 = zext i16 %125 to i32
  %127 = load i16, ptr %21, align 2
  %128 = zext i16 %127 to i32
  %129 = mul i32 %126, %128
  %130 = mul i32 3, %129
  %131 = add i32 18, %130
  store i32 %131, ptr %17, align 4
  br label %133

132:                                              ; preds = %110
  store i32 18, ptr %17, align 4
  br label %133

133:                                              ; preds = %132, %114
  br label %157

134:                                              ; preds = %26
  %135 = load ptr, ptr %18, align 8
  %136 = call i32 @strcmp(ptr noundef %135, ptr noundef @.str.401) #5
  %137 = icmp eq i32 %136, 0
  br i1 %137, label %138, label %143

138:                                              ; preds = %134
  %139 = load ptr, ptr %15, align 8
  %140 = load i32, ptr @hf_extension_code, align 4
  %141 = load ptr, ptr %9, align 8
  %142 = call ptr @proto_tree_add_item(ptr noundef %139, i32 noundef %140, ptr noundef %141, i32 noundef 9, i32 noundef 1, i32 noundef 0)
  store i32 10, ptr %17, align 4
  br label %156

143:                                              ; preds = %134
  %144 = load ptr, ptr %14, align 8
  call void (ptr, ptr, ...) @proto_item_append_text(ptr noundef %144, ptr noundef @.str.402)
  %145 = load i32, ptr %19, align 4
  %146 = add i32 4, %145
  store i32 %146, ptr %17, align 4
  %147 = load ptr, ptr %15, align 8
  %148 = load i32, ptr @hf_remain_seg_data, align 4
  %149 = load ptr, ptr %9, align 8
  %150 = load i32, ptr %17, align 4
  %151 = load i32, ptr %11, align 4
  %152 = sub i32 %151, 2
  %153 = load i32, ptr %19, align 4
  %154 = sub i32 %152, %153
  %155 = call ptr (ptr, i32, ptr, i32, i32, ptr, ptr, ...) @proto_tree_add_bytes_format_value(ptr noundef %147, i32 noundef %148, ptr noundef %149, i32 noundef %150, i32 noundef -1, ptr noundef null, ptr noundef @.str.403, i32 noundef %154)
  br label %156

156:                                              ; preds = %143, %138
  br label %157

157:                                              ; preds = %156, %133
  %158 = load i32, ptr %17, align 4
  store i32 %158, ptr %7, align 4
  store i32 1, ptr %22, align 4
  br label %159

159:                                              ; preds = %157, %25
  call void @llvm.lifetime.end.p0(i64 2, ptr %21) #4
  call void @llvm.lifetime.end.p0(i64 2, ptr %20) #4
  call void @llvm.lifetime.end.p0(i64 4, ptr %19) #4
  call void @llvm.lifetime.end.p0(i64 8, ptr %18) #4
  call void @llvm.lifetime.end.p0(i64 4, ptr %17) #4
  call void @llvm.lifetime.end.p0(i64 8, ptr %16) #4
  call void @llvm.lifetime.end.p0(i64 8, ptr %15) #4
  call void @llvm.lifetime.end.p0(i64 8, ptr %14) #4
  %160 = load i32, ptr %7, align 4
  ret i32 %160
}