; Function Attrs: null_pointer_is_valid sspstrong uwtable
define internal fastcc void @process_app0_segment(ptr noundef %0, ptr noundef %1, ptr noundef readonly captures(none) %2, i32 noundef range(i32 0, 65536) %3, i16 noundef zeroext %4, ptr noundef nonnull %5) unnamed_addr #0 {
  %7 = alloca i32, align 4
  call void @llvm.lifetime.start.p0(i64 4, ptr nonnull %7) #5
  %.not = icmp eq ptr %0, null
  br i1 %.not, label %73, label %8

8:                                                ; preds = %6
  %9 = load i32, ptr @hf_marker_segment, align 4
  %10 = tail call ptr @proto_tree_add_item(ptr noundef nonnull %0, i32 noundef %9, ptr noundef %1, i32 noundef 0, i32 noundef -1, i32 noundef 0)
  %11 = load i32, ptr @ett_marker_segment, align 4
  %12 = tail call ptr @proto_item_add_subtree(ptr noundef %10, i32 noundef %11)
  %13 = zext i16 %4 to i32
  tail call void (ptr, ptr, ...) @proto_item_append_text(ptr noundef %10, ptr noundef nonnull @.str.399, ptr noundef nonnull %5, i32 noundef %13)
  %14 = load i32, ptr @hf_marker, align 4
  %15 = tail call ptr @proto_tree_add_item(ptr noundef %12, i32 noundef %14, ptr noundef %1, i32 noundef 0, i32 noundef 2, i32 noundef 0)
  %16 = load i32, ptr @hf_len, align 4
  %17 = tail call ptr @proto_tree_add_item(ptr noundef %12, i32 noundef %16, ptr noundef %1, i32 noundef 2, i32 noundef 2, i32 noundef 0)
  %18 = getelementptr inbounds nuw i8, ptr %2, i64 408
  %19 = load ptr, ptr %18, align 8
  %20 = call ptr @tvb_get_stringz_enc(ptr noundef %19, ptr noundef %1, i32 noundef 4, ptr noundef nonnull %7, i32 noundef 0)
  %21 = load i32, ptr @hf_identifier, align 4
  %22 = load i32, ptr %7, align 4
  %23 = call ptr @proto_tree_add_item(ptr noundef %12, i32 noundef %21, ptr noundef %1, i32 noundef 4, i32 noundef %22, i32 noundef 0)
  %24 = call i32 @strcmp(ptr noundef %20, ptr noundef nonnull dereferenceable(5) @.str.395) #6
  %25 = icmp eq i32 %24, 0
  br i1 %25, label %26, label %60

26:                                               ; preds = %8
  %27 = load i32, ptr @hf_version, align 4
  %28 = call zeroext i8 @tvb_get_uint8(ptr noundef %1, i32 noundef 9)
  %29 = zext i8 %28 to i32
  %30 = call zeroext i8 @tvb_get_uint8(ptr noundef %1, i32 noundef 10)
  %31 = zext i8 %30 to i32
  %32 = call ptr (ptr, i32, ptr, i32, i32, ptr, ...) @proto_tree_add_none_format(ptr noundef %12, i32 noundef %27, ptr noundef %1, i32 noundef 9, i32 noundef 2, ptr noundef nonnull @.str.400, i32 noundef %29, i32 noundef %31)
  %33 = load i32, ptr @ett_details, align 4
  %34 = call ptr @proto_item_add_subtree(ptr noundef %32, i32 noundef %33)
  %35 = load i32, ptr @hf_version_major, align 4
  %36 = call ptr @proto_tree_add_item(ptr noundef %34, i32 noundef %35, ptr noundef %1, i32 noundef 9, i32 noundef 1, i32 noundef 0)
  %37 = load i32, ptr @hf_version_minor, align 4
  %38 = call ptr @proto_tree_add_item(ptr noundef %34, i32 noundef %37, ptr noundef %1, i32 noundef 10, i32 noundef 1, i32 noundef 0)
  %39 = load i32, ptr @hf_units, align 4
  %40 = call ptr @proto_tree_add_item(ptr noundef %12, i32 noundef %39, ptr noundef %1, i32 noundef 11, i32 noundef 1, i32 noundef 0)
  %41 = load i32, ptr @hf_xdensity, align 4
  %42 = call ptr @proto_tree_add_item(ptr noundef %12, i32 noundef %41, ptr noundef %1, i32 noundef 12, i32 noundef 2, i32 noundef 0)
  %43 = load i32, ptr @hf_ydensity, align 4
  %44 = call ptr @proto_tree_add_item(ptr noundef %12, i32 noundef %43, ptr noundef %1, i32 noundef 14, i32 noundef 2, i32 noundef 0)
  %45 = load i32, ptr @hf_xthumbnail, align 4
  %46 = call ptr @proto_tree_add_item(ptr noundef %12, i32 noundef %45, ptr noundef %1, i32 noundef 16, i32 noundef 1, i32 noundef 0)
  %47 = load i32, ptr @hf_ythumbnail, align 4
  %48 = call ptr @proto_tree_add_item(ptr noundef %12, i32 noundef %47, ptr noundef %1, i32 noundef 17, i32 noundef 1, i32 noundef 0)
  %49 = call zeroext i8 @tvb_get_uint8(ptr noundef %1, i32 noundef 16)
  %50 = call zeroext i8 @tvb_get_uint8(ptr noundef %1, i32 noundef 17)
  %51 = icmp ne i8 %49, 0
  %52 = icmp ne i8 %50, 0
  %or.cond = select i1 %51, i1 true, i1 %52
  br i1 %or.cond, label %53, label %73

53:                                               ; preds = %26
  %54 = zext i8 %50 to i32
  %55 = zext i8 %49 to i32
  %56 = load i32, ptr @hf_rgb, align 4
  %57 = mul nuw nsw i32 %55, 3
  %58 = mul nuw nsw i32 %57, %54
  %59 = call ptr @proto_tree_add_item(ptr noundef %12, i32 noundef %56, ptr noundef %1, i32 noundef 18, i32 noundef %58, i32 noundef 0)
  br label %73

60:                                               ; preds = %8
  %61 = call i32 @strcmp(ptr noundef %20, ptr noundef nonnull dereferenceable(5) @.str.401) #6
  %62 = icmp eq i32 %61, 0
  br i1 %62, label %63, label %66

63:                                               ; preds = %60
  %64 = load i32, ptr @hf_extension_code, align 4
  %65 = call ptr @proto_tree_add_item(ptr noundef %12, i32 noundef %64, ptr noundef %1, i32 noundef 9, i32 noundef 1, i32 noundef 0)
  br label %73

66:                                               ; preds = %60
  call void (ptr, ptr, ...) @proto_item_append_text(ptr noundef %23, ptr noundef nonnull @.str.402)
  %67 = load i32, ptr %7, align 4
  %68 = add i32 %67, 4
  %69 = load i32, ptr @hf_remain_seg_data, align 4
  %70 = add nsw i32 %3, -2
  %71 = sub i32 %70, %67
  %72 = call ptr (ptr, i32, ptr, i32, i32, ptr, ptr, ...) @proto_tree_add_bytes_format_value(ptr noundef %12, i32 noundef %69, ptr noundef %1, i32 noundef %68, i32 noundef -1, ptr noundef null, ptr noundef nonnull @.str.403, i32 noundef %71)
  br label %73

73:                                               ; preds = %53, %66, %63, %26, %6
  call void @llvm.lifetime.end.p0(i64 4, ptr nonnull %7) #5
  ret void
}